target datalayout = "e-m:e-p270:32:32-p271:32:32-p272:64:64-i64:64-i128:128-f80:128-n8:16:32:64-S128"
target triple = "x86_64-pc-linux-gnu"

; Function Attrs: alwaysinline nounwind willreturn memory(none) uwtable
define internal zeroext i8 @av_clip_uint8_c(i32 noundef %0) #5 {
  %2 = alloca i8, align 1
  %3 = alloca i32, align 4
  store i32 %0, ptr %3, align 4, !tbaa !29
  %4 = load i32, ptr %3, align 4, !tbaa !29
  %5 = and i32 %4, -256
  %6 = icmp ne i32 %5, 0
  br i1 %6, label %7, label %12

7:                                                ; preds = %1
  %8 = load i32, ptr %3, align 4, !tbaa !29
  %9 = xor i32 %8, -1
  %10 = ashr i32 %9, 31
  %11 = trunc i32 %10 to i8
  store i8 %11, ptr %2, align 1
  br label %15

12:                                               ; preds = %1
  %13 = load i32, ptr %3, align 4, !tbaa !29
  %14 = trunc i32 %13 to i8
  store i8 %14, ptr %2, align 1
  br label %15

15:                                               ; preds = %12, %7
  %16 = load i8, ptr %2, align 1
  ret i8 %16
}

; Function Attrs: alwaysinline nounwind uwtable
define internal void @ycocg2rgba(ptr noundef %0, i32 noundef %1) #4 {
  %3 = alloca ptr, align 8
  %4 = alloca i32, align 4
  %5 = alloca i32, align 4
  %6 = alloca i32, align 4
  %7 = alloca i32, align 4
  %8 = alloca i32, align 4
  %9 = alloca i32, align 4
  %10 = alloca i32, align 4
  %11 = alloca i32, align 4
  %12 = alloca i32, align 4
  store ptr %0, ptr %3, align 8, !tbaa !25
  store i32 %1, ptr %4, align 4, !tbaa !29
  call void @llvm.lifetime.start.p0(i64 4, ptr %5) #7
  %13 = load ptr, ptr %3, align 8, !tbaa !25
  %14 = getelementptr inbounds i8, ptr %13, i64 0
  %15 = load i8, ptr %14, align 1, !tbaa !40
  %16 = zext i8 %15 to i32
  store i32 %16, ptr %5, align 4, !tbaa !29
  call void @llvm.lifetime.start.p0(i64 4, ptr %6) #7
  %17 = load ptr, ptr %3, align 8, !tbaa !25
  %18 = getelementptr inbounds i8, ptr %17, i64 1
  %19 = load i8, ptr %18, align 1, !tbaa !40
  %20 = zext i8 %19 to i32
  store i32 %20, ptr %6, align 4, !tbaa !29
  call void @llvm.lifetime.start.p0(i64 4, ptr %7) #7
  %21 = load ptr, ptr %3, align 8, !tbaa !25
  %22 = getelementptr inbounds i8, ptr %21, i64 2
  %23 = load i8, ptr %22, align 1, !tbaa !40
  %24 = zext i8 %23 to i32
  store i32 %24, ptr %7, align 4, !tbaa !29
  call void @llvm.lifetime.start.p0(i64 4, ptr %8) #7
  %25 = load ptr, ptr %3, align 8, !tbaa !25
  %26 = getelementptr inbounds i8, ptr %25, i64 3
  %27 = load i8, ptr %26, align 1, !tbaa !40
  %28 = zext i8 %27 to i32
  store i32 %28, ptr %8, align 4, !tbaa !29
  call void @llvm.lifetime.start.p0(i64 4, ptr %9) #7
  %29 = load i32, ptr %4, align 4, !tbaa !29
  %30 = icmp ne i32 %29, 0
  br i1 %30, label %31, label %35

31:                                               ; preds = %2
  %32 = load i32, ptr %7, align 4, !tbaa !29
  %33 = ashr i32 %32, 3
  %34 = add nsw i32 %33, 1
  br label %36

35:                                               ; preds = %2
  br label %36

36:                                               ; preds = %35, %31
  %37 = phi i32 [ %34, %31 ], [ 1, %35 ]
  store i32 %37, ptr %9, align 4, !tbaa !29
  call void @llvm.lifetime.start.p0(i64 4, ptr %10) #7
  %38 = load i32, ptr %8, align 4, !tbaa !29
  store i32 %38, ptr %10, align 4, !tbaa !29
  call void @llvm.lifetime.start.p0(i64 4, ptr %11) #7
  %39 = load i32, ptr %5, align 4, !tbaa !29
  %40 = sub nsw i32 %39, 128
  %41 = load i32, ptr %9, align 4, !tbaa !29
  %42 = sdiv i32 %40, %41
  store i32 %42, ptr %11, align 4, !tbaa !29
  call void @llvm.lifetime.start.p0(i64 4, ptr %12) #7
  %43 = load i32, ptr %6, align 4, !tbaa !29
  %44 = sub nsw i32 %43, 128
  %45 = load i32, ptr %9, align 4, !tbaa !29
  %46 = sdiv i32 %44, %45
  store i32 %46, ptr %12, align 4, !tbaa !29
  %47 = load i32, ptr %10, align 4, !tbaa !29
  %48 = load i32, ptr %11, align 4, !tbaa !29
  %49 = add nsw i32 %47, %48
  %50 = load i32, ptr %12, align 4, !tbaa !29
  %51 = sub nsw i32 %49, %50
  %52 = call zeroext i8 @av_clip_uint8_c(i32 noundef %51) #8
  %53 = load ptr, ptr %3, align 8, !tbaa !25
  %54 = getelementptr inbounds i8, ptr %53, i64 0
  store i8 %52, ptr %54, align 1, !tbaa !40
  %55 = load i32, ptr %10, align 4, !tbaa !29
  %56 = load i32, ptr %12, align 4, !tbaa !29
  %57 = add nsw i32 %55, %56
  %58 = call zeroext i8 @av_clip_uint8_c(i32 noundef %57) #8
  %59 = load ptr, ptr %3, align 8, !tbaa !25
  %60 = getelementptr inbounds i8, ptr %59, i64 1
  store i8 %58, ptr %60, align 1, !tbaa !40
  %61 = load i32, ptr %10, align 4, !tbaa !29
  %62 = load i32, ptr %11, align 4, !tbaa !29
  %63 = sub nsw i32 %61, %62
  %64 = load i32, ptr %12, align 4, !tbaa !29
  %65 = sub nsw i32 %63, %64
  %66 = call zeroext i8 @av_clip_uint8_c(i32 noundef %65) #8
  %67 = load ptr, ptr %3, align 8, !tbaa !25
  %68 = getelementptr inbounds i8, ptr %67, i64 2
  store i8 %66, ptr %68, align 1, !tbaa !40
  %69 = load i32, ptr %4, align 4, !tbaa !29
  %70 = icmp ne i32 %69, 0
  br i1 %70, label %71, label %72

71:                                               ; preds = %36
  br label %74

72:                                               ; preds = %36
  %73 = load i32, ptr %7, align 4, !tbaa !29
  br label %74

74:                                               ; preds = %72, %71
  %75 = phi i32 [ 255, %71 ], [ %73, %72 ]
  %76 = trunc i32 %75 to i8
  %77 = load ptr, ptr %3, align 8, !tbaa !25
  %78 = getelementptr inbounds i8, ptr %77, i64 3
  store i8 %76, ptr %78, align 1, !tbaa !40
  call void @llvm.lifetime.end.p0(i64 4, ptr %12) #7
  call void @llvm.lifetime.end.p0(i64 4, ptr %11) #7
  call void @llvm.lifetime.end.p0(i64 4, ptr %10) #7
  call void @llvm.lifetime.end.p0(i64 4, ptr %9) #7
  call void @llvm.lifetime.end.p0(i64 4, ptr %8) #7
  call void @llvm.lifetime.end.p0(i64 4, ptr %7) #7
  call void @llvm.lifetime.end.p0(i64 4, ptr %6) #7
  call void @llvm.lifetime.end.p0(i64 4, ptr %5) #7
  ret void
}

; Function Attrs: nounwind uwtable
define internal i32 @dxt5y_block(ptr noundef %0, i64 noundef %1, ptr noundef %2) #1 {
  %4 = alloca ptr, align 8
  %5 = alloca i64, align 8
  %6 = alloca ptr, align 8
  %7 = alloca i32, align 4
  %8 = alloca i32, align 4
  store ptr %0, ptr %4, align 8, !tbaa !25
  store i64 %1, ptr %5, align 8, !tbaa !27
  store ptr %2, ptr %6, align 8, !tbaa !25
  call void @llvm.lifetime.start.p0(i64 4, ptr %7) #7
  call void @llvm.lifetime.start.p0(i64 4, ptr %8) #7
  %9 = load ptr, ptr %4, align 8, !tbaa !25
  %10 = load i64, ptr %5, align 8, !tbaa !27
  %11 = load ptr, ptr %6, align 8, !tbaa !25
  call void @dxt5_block_internal(ptr noundef %9, i64 noundef %10, ptr noundef %11)
  store i32 0, ptr %8, align 4, !tbaa !29
  br label %12

12:                                               ; preds = %34, %3
  %13 = load i32, ptr %8, align 4, !tbaa !29
  %14 = icmp slt i32 %13, 4
  br i1 %14, label %15, label %37

15:                                               ; preds = %12
  store i32 0, ptr %7, align 4, !tbaa !29
  br label %16

16:                                               ; preds = %30, %15
  %17 = load i32, ptr %7, align 4, !tbaa !29
  %18 = icmp slt i32 %17, 4
  br i1 %18, label %19, label %33

19:                                               ; preds = %16
  %20 = load ptr, ptr %4, align 8, !tbaa !25
  %21 = load i32, ptr %7, align 4, !tbaa !29
  %22 = mul nsw i32 %21, 4
  %23 = sext i32 %22 to i64
  %24 = getelementptr inbounds i8, ptr %20, i64 %23
  %25 = load i32, ptr %8, align 4, !tbaa !29
  %26 = sext i32 %25 to i64
  %27 = load i64, ptr %5, align 8, !tbaa !27
  %28 = mul nsw i64 %26, %27
  %29 = getelementptr inbounds i8, ptr %24, i64 %28
  call void @ycocg2rgba(ptr noundef %29, i32 noundef 0)
  br label %30

30:                                               ; preds = %19
  %31 = load i32, ptr %7, align 4, !tbaa !29
  %32 = add nsw i32 %31, 1
  store i32 %32, ptr %7, align 4, !tbaa !29
  br label %16, !llvm.loop !36

33:                                               ; preds = %16
  br label %34

34:                                               ; preds = %33
  %35 = load i32, ptr %8, align 4, !tbaa !29
  %36 = add nsw i32 %35, 1
  store i32 %36, ptr %8, align 4, !tbaa !29
  br label %12, !llvm.loop !37

37:                                               ; preds = %12
  call void @llvm.lifetime.end.p0(i64 4, ptr %8) #7
  call void @llvm.lifetime.end.p0(i64 4, ptr %7) #7
  ret i32 16
}