; Function Attrs: nofree norecurse nosync nounwind memory(argmem: readwrite) uwtable
define internal noundef i32 @dxt5y_block(ptr noundef captures(none) %0, i64 noundef %1, ptr noundef readonly captures(none) %2) #1 {
  tail call fastcc void @dxt5_block_internal(ptr noundef %0, i64 noundef %1, ptr noundef %2)
  br label %.preheader

.preheader:                                       ; preds = %3, %28
  %indvars.iv22 = phi i64 [ 0, %3 ], [ %indvars.iv.next23, %28 ]
  %4 = mul nsw i64 %1, %indvars.iv22
  %invariant.gep = getelementptr i8, ptr %0, i64 %4
  br label %5

5:                                                ; preds = %.preheader, %5
  %indvars.iv = phi i64 [ 0, %.preheader ], [ %indvars.iv.next, %5 ]
  %6 = shl nuw nsw i64 %indvars.iv, 2
  %gep = getelementptr i8, ptr %invariant.gep, i64 %6
  %7 = load i8, ptr %gep, align 1, !tbaa !23
  %8 = zext i8 %7 to i32
  %9 = getelementptr inbounds nuw i8, ptr %gep, i64 1
  %10 = load i8, ptr %9, align 1, !tbaa !23
  %11 = zext i8 %10 to i32
  %12 = getelementptr inbounds nuw i8, ptr %gep, i64 2
  %13 = load i8, ptr %12, align 1, !tbaa !23
  %14 = getelementptr inbounds nuw i8, ptr %gep, i64 3
  %15 = load i8, ptr %14, align 1, !tbaa !23
  %16 = zext i8 %15 to i32
  %17 = add nsw i32 %11, -128
  %18 = sub nsw i32 %8, %11
  %19 = add nsw i32 %18, %16
  %.not.i14 = icmp ult i32 %19, 256
  %isnotneg.i15 = icmp sgt i32 %19, -1
  %20 = sext i1 %isnotneg.i15 to i8
  %21 = trunc nuw i32 %19 to i8
  %.0.i16 = select i1 %.not.i14, i8 %21, i8 %20
  store i8 %.0.i16, ptr %gep, align 1, !tbaa !23
  %22 = add nsw i32 %17, %16
  %.not.i11 = icmp ult i32 %22, 256
  %isnotneg.i12 = icmp sgt i32 %22, -1
  %23 = sext i1 %isnotneg.i12 to i8
  %24 = trunc nuw i32 %22 to i8
  %.0.i13 = select i1 %.not.i11, i8 %24, i8 %23
  store i8 %.0.i13, ptr %9, align 1, !tbaa !23
  %25 = add nuw nsw i32 %8, %11
  %reass.sub = sub nsw i32 %16, %25
  %.not.i = icmp ugt i32 %reass.sub, -257
  %isnotneg.i = icmp sgt i32 %reass.sub, -257
  %26 = sext i1 %isnotneg.i to i8
  %27 = trunc i32 %reass.sub to i8
  %.0.i = select i1 %.not.i, i8 %27, i8 %26
  store i8 %.0.i, ptr %12, align 1, !tbaa !23
  store i8 %13, ptr %14, align 1, !tbaa !23
  %indvars.iv.next = add nuw nsw i64 %indvars.iv, 1
  %exitcond.not = icmp eq i64 %indvars.iv.next, 4
  br i1 %exitcond.not, label %28, label %5, !llvm.loop !29

28:                                               ; preds = %5
  %indvars.iv.next23 = add nuw nsw i64 %indvars.iv22, 1
  %exitcond25.not = icmp eq i64 %indvars.iv.next23, 4
  br i1 %exitcond25.not, label %29, label %.preheader, !llvm.loop !30

29:                                               ; preds = %28
  ret i32 16
}